ccopy_reg
_reconstructor
p0
(csklearn.svm.classes
LinearSVR
p1
c__builtin__
object
p2
Ntp3
Rp4
(dp5
S'loss'
p6
S'epsilon_insensitive'
p7
sS'C'
p8
cnumpy.core.multiarray
scalar
p9
(cnumpy
dtype
p10
(S'f8'
p11
I0
I1
tp12
Rp13
(I3
S'<'
p14
NNNI-1
I-1
I0
tp15
bS'\x01\x00\x00\x00\x00\x00\x08@'
p16
tp17
Rp18
sS'verbose'
p19
I0
sS'fit_intercept'
p20
I01
sS'epsilon'
p21
F0.0
sS'max_iter'
p22
I1000
sS'n_iter_'
p23
g9
(g10
(S'i4'
p24
I0
I1
tp25
Rp26
(I3
S'<'
p27
NNNI-1
I-1
I0
tp28
bS'\xd6\x03\x00\x00'
p29
tp30
Rp31
sS'random_state'
p32
NsS'_sklearn_version'
p33
S'0.18.1'
p34
sS'dual'
p35
I01
sS'tol'
p36
F0.0001
sS'coef_'
p37
cnumpy.core.multiarray
_reconstruct
p38
(cnumpy
ndarray
p39
(I0
tp40
S'b'
p41
tp42
Rp43
(I1
(I6
tp44
g13
I00
S'\x8bm\xd2\xd7\x12A.@jj\xdbD-\x06\xd4?\xcb\x9e\xaf\xa5%\xc6\xd9?\x94W`\xf2\xd8F\xf3\xbf\x81\x94\x82;\x87\xc5\xb7\xbfdvXx\xd2)\x92?'
p45
tp46
bsS'intercept_'
p47
g38
(g39
(I0
tp48
g41
tp49
Rp50
(I1
(I1
tp51
g13
I00
S'\xc5\t$)\xfd\x7fW@'
p52
tp53
bsS'intercept_scaling'
p54
F1.0
sb.